target datalayout = "e-m:e-p270:32:32-p271:32:32-p272:64:64-i64:64-i128:128-f80:128-n8:16:32:64-S128"
target triple = "x86_64-pc-linux-gnu"

%struct.WOLFSSL = type <{ ptr, ptr, ptr, ptr, [48 x i8], [48 x i8], ptr, ptr, ptr, ptr, ptr, ptr, ptr, ptr, ptr, ptr, ptr, ptr, ptr, i32, [4 x i8], %struct.WOLFSSL_CIPHER, ptr, %struct.Ciphers, %struct.Ciphers, [8 x i8], %struct.Buffers, ptr, ptr, %struct.WOLFSSL_ALERT_HISTORY, %struct.WOLFSSL_ALERT, i32, i32, i32, i32, i32, i32, i32, i16, [2 x i8], i32, i8, %struct.RecordLayerHeader, %struct.MsgsReceived, %struct.ProtocolVersion, %struct.ProtocolVersion, %struct.CipherSpecs, [2 x i8], %struct.Keys, %struct.Options, ptr, i8, i8, i16, [10 x i16], i8, i8, i16, i16, [38 x i8], i32, i32, [4 x i8], ptr, i8, i8, [6 x i8], ptr, ptr, i16, i8, i8, i32, i8, [3 x i8], i32, %struct.OneTimeAuth, ptr }>
%struct.WOLFSSL_CIPHER = type { i8, i8, ptr }
%struct.Ciphers = type { ptr, ptr, ptr, ptr, i8, i8 }
%struct.Buffers = type { %struct.bufferStatic, %struct.bufferStatic, %struct.WOLFSSL_BUFFER_INFO, %struct.WOLFSSL_BUFFER_INFO, %struct.WOLFSSL_BUFFER_INFO, %struct.WOLFSSL_BUFFER_INFO, i32, i32, i8, i8, i8, i8, %struct.WOLFSSL_BUFFER_INFO, %struct.WOLFSSL_BUFFER_INFO, %struct.WOLFSSL_BUFFER_INFO, %struct.WOLFSSL_BUFFER_INFO, ptr, ptr, ptr, i8, i8, i32, i32, ptr, i32, [1 x ptr] }
%struct.bufferStatic = type { [5 x i8], ptr, i32, i32, i32, i8, i8 }
%struct.WOLFSSL_BUFFER_INFO = type { ptr, i32 }
%struct.WOLFSSL_ALERT_HISTORY = type { %struct.WOLFSSL_ALERT, %struct.WOLFSSL_ALERT }
%struct.WOLFSSL_ALERT = type { i32, i32 }
%struct.RecordLayerHeader = type { i8, i8, i8, [2 x i8] }
%struct.MsgsReceived = type { i32 }
%struct.ProtocolVersion = type { i8, i8 }
%struct.CipherSpecs = type { i16, i16, i16, i16, i8, i8, i8, i8, i8, i8, i8, i8 }
%struct.Keys = type { [64 x i8], [64 x i8], [32 x i8], [32 x i8], [16 x i8], [16 x i8], [8 x i8], [12 x i8], [12 x i8], i32, i32, i32, i32, i32, i32, i8, i8, i8, i8 }
%struct.Options = type { i64, i64, i8, i8, i8, i8, i8, i8, i8, i8, i8, i8, i8, i8, i8, i8, i8, i8, i8, i8, i8, i8, i8, i16, i16, i16, i16, i16, i8 }
%struct.OneTimeAuth = type { ptr, i8 }
%struct.sp_int = type { i16, i16, [129 x i64] }
%struct.ecc_key = type { i32, i32, i32, i32, ptr, ptr, %struct.ecc_point, [1 x %struct.sp_int], ptr }
%struct.ecc_point = type { [1 x %struct.sp_int], [1 x %struct.sp_int], [1 x %struct.sp_int], i8 }
%struct.ecc_set_type = type { i32, i32, ptr, ptr, ptr, ptr, ptr, ptr, ptr, ptr, i32, i32, i32 }

; Function Attrs: nounwind uwtable
define i32 @EccMakeKey(ptr noundef %0, ptr noundef %1, ptr noundef %2) #0 {
  %4 = alloca ptr, align 8
  %5 = alloca ptr, align 8
  %6 = alloca ptr, align 8
  %7 = alloca i32, align 4
  %8 = alloca i32, align 4
  %9 = alloca i32, align 4
  store ptr %0, ptr %4, align 8, !tbaa !3
  store ptr %1, ptr %5, align 8, !tbaa !153
  store ptr %2, ptr %6, align 8, !tbaa !153
  call void @llvm.lifetime.start.p0(i64 4, ptr %7) #9
  store i32 0, ptr %7, align 4, !tbaa !47
  call void @llvm.lifetime.start.p0(i64 4, ptr %8) #9
  store i32 0, ptr %8, align 4, !tbaa !47
  call void @llvm.lifetime.start.p0(i64 4, ptr %9) #9
  store i32 0, ptr %9, align 4, !tbaa !47
  br label %10

10:                                               ; preds = %3
  br label %11

11:                                               ; preds = %10
  br label %12

12:                                               ; preds = %11
  %13 = load ptr, ptr %6, align 8, !tbaa !153
  %14 = icmp eq ptr %13, null
  br i1 %14, label %20, label %15

15:                                               ; preds = %12
  %16 = load ptr, ptr %6, align 8, !tbaa !153
  %17 = getelementptr inbounds nuw %struct.ecc_key, ptr %16, i32 0, i32 4
  %18 = load ptr, ptr %17, align 8, !tbaa !155
  %19 = icmp eq ptr %18, null
  br i1 %19, label %20, label %35

20:                                               ; preds = %15, %12
  %21 = load ptr, ptr %4, align 8, !tbaa !3
  %22 = getelementptr inbounds nuw %struct.WOLFSSL, ptr %21, i32 0, i32 69
  %23 = load i16, ptr %22, align 8, !tbaa !159
  %24 = zext i16 %23 to i32
  store i32 %24, ptr %8, align 4, !tbaa !47
  %25 = load ptr, ptr %4, align 8, !tbaa !3
  %26 = getelementptr inbounds nuw %struct.WOLFSSL, ptr %25, i32 0, i32 61
  %27 = load i32, ptr %26, align 16, !tbaa !160
  %28 = icmp ugt i32 %27, 0
  br i1 %28, label %29, label %34

29:                                               ; preds = %20
  %30 = load ptr, ptr %4, align 8, !tbaa !3
  %31 = getelementptr inbounds nuw %struct.WOLFSSL, ptr %30, i32 0, i32 61
  %32 = load i32, ptr %31, align 16, !tbaa !160
  %33 = call i32 @wc_ecc_get_oid(i32 noundef %32, ptr noundef null, ptr noundef null)
  store i32 %33, ptr %9, align 4, !tbaa !47
  br label %34

34:                                               ; preds = %29, %20
  br label %46

35:                                               ; preds = %15
  %36 = load ptr, ptr %6, align 8, !tbaa !153
  %37 = getelementptr inbounds nuw %struct.ecc_key, ptr %36, i32 0, i32 4
  %38 = load ptr, ptr %37, align 8, !tbaa !155
  %39 = getelementptr inbounds nuw %struct.ecc_set_type, ptr %38, i32 0, i32 0
  %40 = load i32, ptr %39, align 8, !tbaa !161
  store i32 %40, ptr %8, align 4, !tbaa !47
  %41 = load ptr, ptr %6, align 8, !tbaa !153
  %42 = getelementptr inbounds nuw %struct.ecc_key, ptr %41, i32 0, i32 4
  %43 = load ptr, ptr %42, align 8, !tbaa !155
  %44 = getelementptr inbounds nuw %struct.ecc_set_type, ptr %43, i32 0, i32 1
  %45 = load i32, ptr %44, align 4, !tbaa !163
  store i32 %45, ptr %9, align 4, !tbaa !47
  br label %46

46:                                               ; preds = %35, %34
  %47 = load ptr, ptr %4, align 8, !tbaa !3
  %48 = getelementptr inbounds nuw %struct.WOLFSSL, ptr %47, i32 0, i32 9
  %49 = load ptr, ptr %48, align 8, !tbaa !147
  %50 = load i32, ptr %8, align 4, !tbaa !47
  %51 = load ptr, ptr %5, align 8, !tbaa !153
  %52 = load i32, ptr %9, align 4, !tbaa !47
  %53 = call i32 @wc_ecc_make_key_ex(ptr noundef %49, i32 noundef %50, ptr noundef %51, i32 noundef %52)
  store i32 %53, ptr %7, align 4, !tbaa !47
  %54 = load i32, ptr %7, align 4, !tbaa !47
  %55 = icmp eq i32 %54, 0
  br i1 %55, label %56, label %71

56:                                               ; preds = %46
  %57 = load ptr, ptr %5, align 8, !tbaa !153
  %58 = getelementptr inbounds nuw %struct.ecc_key, ptr %57, i32 0, i32 4
  %59 = load ptr, ptr %58, align 8, !tbaa !155
  %60 = icmp ne ptr %59, null
  br i1 %60, label %61, label %71

61:                                               ; preds = %56
  %62 = load ptr, ptr %5, align 8, !tbaa !153
  %63 = getelementptr inbounds nuw %struct.ecc_key, ptr %62, i32 0, i32 4
  %64 = load ptr, ptr %63, align 8, !tbaa !155
  %65 = getelementptr inbounds nuw %struct.ecc_set_type, ptr %64, i32 0, i32 11
  %66 = load i32, ptr %65, align 4, !tbaa !164
  %67 = load ptr, ptr %4, align 8, !tbaa !3
  %68 = getelementptr inbounds nuw %struct.WOLFSSL, ptr %67, i32 0, i32 61
  store i32 %66, ptr %68, align 16, !tbaa !160
  %69 = load ptr, ptr %4, align 8, !tbaa !3
  %70 = getelementptr inbounds nuw %struct.WOLFSSL, ptr %69, i32 0, i32 53
  store i16 0, ptr %70, align 2, !tbaa !165
  br label %71

71:                                               ; preds = %61, %56, %46
  br label %72

72:                                               ; preds = %71
  br label %73

73:                                               ; preds = %72
  br label %74

74:                                               ; preds = %73
  %75 = load i32, ptr %7, align 4, !tbaa !47
  call void @llvm.lifetime.end.p0(i64 4, ptr %9) #9
  call void @llvm.lifetime.end.p0(i64 4, ptr %8) #9
  call void @llvm.lifetime.end.p0(i64 4, ptr %7) #9
  ret i32 %75
}