; Function Attrs: nounwind uwtable
define i32 @EccMakeKey(ptr noundef captures(none) %0, ptr noundef %1, ptr noundef readonly captures(address_is_null) %2) local_unnamed_addr #5 {
  %4 = icmp eq ptr %2, null
  br i1 %4, label %9, label %5

5:                                                ; preds = %3
  %6 = getelementptr inbounds nuw i8, ptr %2, i64 16
  %7 = load ptr, ptr %6, align 8, !tbaa !120
  %8 = icmp eq ptr %7, null
  br i1 %8, label %9, label %17

9:                                                ; preds = %5, %3
  %10 = getelementptr inbounds nuw i8, ptr %0, i64 1192
  %11 = load i16, ptr %10, align 8, !tbaa !124
  %12 = zext i16 %11 to i32
  %13 = getelementptr inbounds nuw i8, ptr %0, i64 1152
  %14 = load i32, ptr %13, align 16, !tbaa !125
  %.not = icmp eq i32 %14, 0
  br i1 %.not, label %21, label %15

15:                                               ; preds = %9
  %16 = tail call i32 @wc_ecc_get_oid(i32 noundef %14, ptr noundef null, ptr noundef null) #26
  br label %21

17:                                               ; preds = %5
  %18 = load i32, ptr %7, align 8, !tbaa !126
  %19 = getelementptr inbounds nuw i8, ptr %7, i64 4
  %20 = load i32, ptr %19, align 4, !tbaa !128
  br label %21

21:                                               ; preds = %9, %15, %17
  %.016 = phi i32 [ %12, %15 ], [ %12, %9 ], [ %18, %17 ]
  %.0 = phi i32 [ %16, %15 ], [ 0, %9 ], [ %20, %17 ]
  %22 = getelementptr inbounds nuw i8, ptr %0, i64 152
  %23 = load ptr, ptr %22, align 8, !tbaa !116
  %24 = tail call i32 @wc_ecc_make_key_ex(ptr noundef %23, i32 noundef %.016, ptr noundef %1, i32 noundef %.0) #26
  %25 = icmp eq i32 %24, 0
  br i1 %25, label %26, label %34

26:                                               ; preds = %21
  %27 = getelementptr inbounds nuw i8, ptr %1, i64 16
  %28 = load ptr, ptr %27, align 8, !tbaa !120
  %.not21 = icmp eq ptr %28, null
  br i1 %.not21, label %34, label %29

29:                                               ; preds = %26
  %30 = getelementptr inbounds nuw i8, ptr %28, i64 76
  %31 = load i32, ptr %30, align 4, !tbaa !129
  %32 = getelementptr inbounds nuw i8, ptr %0, i64 1152
  store i32 %31, ptr %32, align 16, !tbaa !125
  %33 = getelementptr inbounds nuw i8, ptr %0, i64 1082
  store i16 0, ptr %33, align 2, !tbaa !130
  br label %34

34:                                               ; preds = %21, %26, %29
  ret i32 %24
}